target datalayout = "e-m:e-p270:32:32-p271:32:32-p272:64:64-i64:64-i128:128-f80:128-n8:16:32:64-S128"
target triple = "x86_64-pc-linux-gnu"

%struct.strbuf = type { i64, i64, ptr }
%struct.archiver_args = type { ptr, ptr, ptr, ptr, i64, ptr, ptr, ptr, ptr, i64, %struct.pathspec, i8, i32, %struct.string_list, ptr }
%struct.pathspec = type { i32, i8, i32, i32, ptr }
%struct.string_list = type { ptr, i64, i64, i8, ptr }
%struct.string_list_item = type { ptr, ptr }
%struct.extra_file_info = type { ptr, %struct.stat, ptr }
%struct.stat = type { i64, i64, i64, i32, i32, i32, i32, i64, i64, i64, i64, %struct.timespec, %struct.timespec, %struct.timespec, [3 x i64] }
%struct.timespec = type { i64, i64 }
%struct.option = type { i32, i32, ptr, ptr, ptr, ptr, i32, ptr, i64, ptr, i64, ptr }

@.str.19 = private unnamed_addr constant [9 x i8] c"add-file\00", align 1
@.str.22 = private unnamed_addr constant [17 x i8] c"add-virtual-file\00", align 1
@.str.51 = private unnamed_addr constant [10 x i8] c"archive.c\00", align 1
@.str.55 = private unnamed_addr constant [19 x i8] c"File not found: %s\00", align 1
@.str.56 = private unnamed_addr constant [23 x i8] c"Not a regular file: %s\00", align 1
@__const.add_file_cb.buf = private unnamed_addr constant %struct.strbuf { i64 0, i64 0, ptr @strbuf_slopbuf }, align 8
@.str.57 = private unnamed_addr constant [21 x i8] c"unclosed quote: '%s'\00", align 1
@.str.58 = private unnamed_addr constant [20 x i8] c"missing colon: '%s'\00", align 1
@.str.59 = private unnamed_addr constant [22 x i8] c"empty file name: '%s'\00", align 1
@.str.60 = private unnamed_addr constant [28 x i8] c"add_file_cb() called for %s\00", align 1

; Function Attrs: inlinehint nounwind uwtable
define internal ptr @xstrdup_or_null(ptr noundef %0) #2 {
  %2 = alloca ptr, align 8
  store ptr %0, ptr %2, align 8, !tbaa !50
  %3 = load ptr, ptr %2, align 8, !tbaa !50
  %4 = icmp ne ptr %3, null
  br i1 %4, label %5, label %8

5:                                                ; preds = %1
  %6 = load ptr, ptr %2, align 8, !tbaa !50
  %7 = call ptr @xstrdup(ptr noundef %6)
  br label %9

8:                                                ; preds = %1
  br label %9

9:                                                ; preds = %8, %5
  %10 = phi ptr [ %7, %5 ], [ null, %8 ]
  ret ptr %10
}

; Function Attrs: nounwind uwtable
define internal i32 @add_file_cb(ptr noundef %0, ptr noundef %1, i32 noundef %2) #0 {
  %4 = alloca i32, align 4
  %5 = alloca ptr, align 8
  %6 = alloca ptr, align 8
  %7 = alloca i32, align 4
  %8 = alloca ptr, align 8
  %9 = alloca ptr, align 8
  %10 = alloca ptr, align 8
  %11 = alloca ptr, align 8
  %12 = alloca ptr, align 8
  %13 = alloca ptr, align 8
  %14 = alloca i32, align 4
  %15 = alloca %struct.strbuf, align 8
  %16 = alloca ptr, align 8
  %17 = alloca ptr, align 8
  store ptr %0, ptr %5, align 8, !tbaa !187
  store ptr %1, ptr %6, align 8, !tbaa !50
  store i32 %2, ptr %7, align 4, !tbaa !9
  call void @llvm.lifetime.start.p0(i64 8, ptr %8) #11
  %18 = load ptr, ptr %5, align 8, !tbaa !187
  %19 = getelementptr inbounds nuw %struct.option, ptr %18, i32 0, i32 3
  %20 = load ptr, ptr %19, align 8, !tbaa !125
  store ptr %20, ptr %8, align 8, !tbaa !15
  call void @llvm.lifetime.start.p0(i64 8, ptr %9) #11
  %21 = load ptr, ptr %5, align 8, !tbaa !187
  %22 = getelementptr inbounds nuw %struct.option, ptr %21, i32 0, i32 8
  %23 = load i64, ptr %22, align 8, !tbaa !129
  %24 = inttoptr i64 %23 to ptr
  store ptr %24, ptr %9, align 8, !tbaa !94
  call void @llvm.lifetime.start.p0(i64 8, ptr %10) #11
  %25 = load ptr, ptr %9, align 8, !tbaa !94
  %26 = load ptr, ptr %25, align 8, !tbaa !50
  store ptr %26, ptr %10, align 8, !tbaa !50
  call void @llvm.lifetime.start.p0(i64 8, ptr %11) #11
  call void @llvm.lifetime.start.p0(i64 8, ptr %12) #11
  call void @llvm.lifetime.start.p0(i64 8, ptr %13) #11
  %27 = load i32, ptr %7, align 4, !tbaa !9
  %28 = icmp ne i32 %27, 0
  br i1 %28, label %29, label %32

29:                                               ; preds = %3
  %30 = load ptr, ptr %8, align 8, !tbaa !15
  %31 = getelementptr inbounds nuw %struct.archiver_args, ptr %30, i32 0, i32 13
  call void @string_list_clear_func(ptr noundef %31, ptr noundef @extra_file_info_clear)
  store i32 0, ptr %4, align 4
  store i32 1, ptr %14, align 4
  br label %174

32:                                               ; preds = %3
  %33 = load ptr, ptr %6, align 8, !tbaa !50
  %34 = icmp ne ptr %33, null
  br i1 %34, label %36, label %35

35:                                               ; preds = %32
  store i32 -1, ptr %4, align 4
  store i32 1, ptr %14, align 4
  br label %174

36:                                               ; preds = %32
  %37 = call ptr @xmalloc(i64 noundef 160)
  store ptr %37, ptr %13, align 8, !tbaa !52
  %38 = load ptr, ptr %10, align 8, !tbaa !50
  %39 = call ptr @xstrdup_or_null(ptr noundef %38)
  %40 = load ptr, ptr %13, align 8, !tbaa !52
  %41 = getelementptr inbounds nuw %struct.extra_file_info, ptr %40, i32 0, i32 0
  store ptr %39, ptr %41, align 8, !tbaa !58
  %42 = load ptr, ptr %5, align 8, !tbaa !187
  %43 = getelementptr inbounds nuw %struct.option, ptr %42, i32 0, i32 2
  %44 = load ptr, ptr %43, align 8, !tbaa !124
  %45 = call i32 @strcmp(ptr noundef %44, ptr noundef @.str.19) #12
  %46 = icmp ne i32 %45, 0
  br i1 %46, label %74, label %47

47:                                               ; preds = %36
  %48 = load ptr, ptr %8, align 8, !tbaa !15
  %49 = getelementptr inbounds nuw %struct.archiver_args, ptr %48, i32 0, i32 2
  %50 = load ptr, ptr %49, align 8, !tbaa !110
  %51 = load ptr, ptr %6, align 8, !tbaa !50
  %52 = call ptr @prefix_filename(ptr noundef %50, ptr noundef %51)
  store ptr %52, ptr %11, align 8, !tbaa !50
  %53 = load ptr, ptr %11, align 8, !tbaa !50
  %54 = load ptr, ptr %13, align 8, !tbaa !52
  %55 = getelementptr inbounds nuw %struct.extra_file_info, ptr %54, i32 0, i32 1
  %56 = call i32 @stat64(ptr noundef %53, ptr noundef %55) #11
  %57 = icmp ne i32 %56, 0
  br i1 %57, label %58, label %61

58:                                               ; preds = %47
  %59 = call ptr @_(ptr noundef @.str.55)
  %60 = load ptr, ptr %11, align 8, !tbaa !50
  call void (ptr, ...) @die(ptr noundef %59, ptr noundef %60) #10
  unreachable

61:                                               ; preds = %47
  %62 = load ptr, ptr %13, align 8, !tbaa !52
  %63 = getelementptr inbounds nuw %struct.extra_file_info, ptr %62, i32 0, i32 1
  %64 = getelementptr inbounds nuw %struct.stat, ptr %63, i32 0, i32 3
  %65 = load i32, ptr %64, align 8, !tbaa !63
  %66 = and i32 %65, 61440
  %67 = icmp eq i32 %66, 32768
  br i1 %67, label %71, label %68

68:                                               ; preds = %61
  %69 = call ptr @_(ptr noundef @.str.56)
  %70 = load ptr, ptr %11, align 8, !tbaa !50
  call void (ptr, ...) @die(ptr noundef %69, ptr noundef %70) #10
  unreachable

71:                                               ; preds = %61
  %72 = load ptr, ptr %13, align 8, !tbaa !52
  %73 = getelementptr inbounds nuw %struct.extra_file_info, ptr %72, i32 0, i32 2
  store ptr null, ptr %73, align 8, !tbaa !54
  br label %166

74:                                               ; preds = %36
  %75 = load ptr, ptr %5, align 8, !tbaa !187
  %76 = getelementptr inbounds nuw %struct.option, ptr %75, i32 0, i32 2
  %77 = load ptr, ptr %76, align 8, !tbaa !124
  %78 = call i32 @strcmp(ptr noundef %77, ptr noundef @.str.22) #12
  %79 = icmp ne i32 %78, 0
  br i1 %79, label %161, label %80

80:                                               ; preds = %74
  call void @llvm.lifetime.start.p0(i64 24, ptr %15) #11
  call void @llvm.memcpy.p0.p0.i64(ptr align 8 %15, ptr align 8 @__const.add_file_cb.buf, i64 24, i1 false)
  call void @llvm.lifetime.start.p0(i64 8, ptr %16) #11
  %81 = load ptr, ptr %6, align 8, !tbaa !50
  store ptr %81, ptr %16, align 8, !tbaa !50
  %82 = load ptr, ptr %16, align 8, !tbaa !50
  %83 = load i8, ptr %82, align 1, !tbaa !31
  %84 = sext i8 %83 to i32
  %85 = icmp ne i32 %84, 34
  br i1 %85, label %86, label %89

86:                                               ; preds = %80
  %87 = load ptr, ptr %16, align 8, !tbaa !50
  %88 = call ptr @strchr(ptr noundef %87, i32 noundef 58) #12
  store ptr %88, ptr %16, align 8, !tbaa !50
  br label %97

89:                                               ; preds = %80
  %90 = load ptr, ptr %16, align 8, !tbaa !50
  %91 = call i32 @unquote_c_style(ptr noundef %15, ptr noundef %90, ptr noundef %16)
  %92 = icmp slt i32 %91, 0
  br i1 %92, label %93, label %96

93:                                               ; preds = %89
  %94 = call ptr @_(ptr noundef @.str.57)
  %95 = load ptr, ptr %6, align 8, !tbaa !50
  call void (ptr, ...) @die(ptr noundef %94, ptr noundef %95) #10
  unreachable

96:                                               ; preds = %89
  br label %97

97:                                               ; preds = %96, %86
  %98 = load ptr, ptr %16, align 8, !tbaa !50
  %99 = icmp ne ptr %98, null
  br i1 %99, label %100, label %105

100:                                              ; preds = %97
  %101 = load ptr, ptr %16, align 8, !tbaa !50
  %102 = load i8, ptr %101, align 1, !tbaa !31
  %103 = sext i8 %102 to i32
  %104 = icmp ne i32 %103, 58
  br i1 %104, label %105, label %108

105:                                              ; preds = %100, %97
  %106 = call ptr @_(ptr noundef @.str.58)
  %107 = load ptr, ptr %6, align 8, !tbaa !50
  call void (ptr, ...) @die(ptr noundef %106, ptr noundef %107) #10
  unreachable

108:                                              ; preds = %100
  %109 = load ptr, ptr %16, align 8, !tbaa !50
  %110 = load ptr, ptr %6, align 8, !tbaa !50
  %111 = icmp eq ptr %109, %110
  br i1 %111, label %112, label %115

112:                                              ; preds = %108
  %113 = call ptr @_(ptr noundef @.str.59)
  %114 = load ptr, ptr %6, align 8, !tbaa !50
  call void (ptr, ...) @die(ptr noundef %113, ptr noundef %114) #10
  unreachable

115:                                              ; preds = %108
  %116 = getelementptr inbounds nuw %struct.strbuf, ptr %15, i32 0, i32 1
  %117 = load i64, ptr %116, align 8, !tbaa !62
  %118 = icmp ne i64 %117, 0
  br i1 %118, label %119, label %121

119:                                              ; preds = %115
  %120 = call ptr @strbuf_detach(ptr noundef %15, ptr noundef null)
  br label %129

121:                                              ; preds = %115
  %122 = load ptr, ptr %6, align 8, !tbaa !50
  %123 = load ptr, ptr %16, align 8, !tbaa !50
  %124 = load ptr, ptr %6, align 8, !tbaa !50
  %125 = ptrtoint ptr %123 to i64
  %126 = ptrtoint ptr %124 to i64
  %127 = sub i64 %125, %126
  %128 = call ptr @xstrndup(ptr noundef %122, i64 noundef %127)
  br label %129

129:                                              ; preds = %121, %119
  %130 = phi ptr [ %120, %119 ], [ %128, %121 ]
  store ptr %130, ptr %11, align 8, !tbaa !50
  %131 = load ptr, ptr %8, align 8, !tbaa !15
  %132 = getelementptr inbounds nuw %struct.archiver_args, ptr %131, i32 0, i32 2
  %133 = load ptr, ptr %132, align 8, !tbaa !110
  %134 = icmp ne ptr %133, null
  br i1 %134, label %135, label %143

135:                                              ; preds = %129
  call void @llvm.lifetime.start.p0(i64 8, ptr %17) #11
  %136 = load ptr, ptr %11, align 8, !tbaa !50
  store ptr %136, ptr %17, align 8, !tbaa !50
  %137 = load ptr, ptr %8, align 8, !tbaa !15
  %138 = getelementptr inbounds nuw %struct.archiver_args, ptr %137, i32 0, i32 2
  %139 = load ptr, ptr %138, align 8, !tbaa !110
  %140 = load ptr, ptr %11, align 8, !tbaa !50
  %141 = call ptr @prefix_filename(ptr noundef %139, ptr noundef %140)
  store ptr %141, ptr %11, align 8, !tbaa !50
  %142 = load ptr, ptr %17, align 8, !tbaa !50
  call void @free(ptr noundef %142) #11
  call void @llvm.lifetime.end.p0(i64 8, ptr %17) #11
  br label %143

143:                                              ; preds = %135, %129
  %144 = load ptr, ptr %13, align 8, !tbaa !52
  %145 = getelementptr inbounds nuw %struct.extra_file_info, ptr %144, i32 0, i32 1
  call void @llvm.memset.p0.i64(ptr align 8 %145, i8 0, i64 144, i1 false)
  %146 = load ptr, ptr %13, align 8, !tbaa !52
  %147 = getelementptr inbounds nuw %struct.extra_file_info, ptr %146, i32 0, i32 1
  %148 = getelementptr inbounds nuw %struct.stat, ptr %147, i32 0, i32 3
  store i32 33188, ptr %148, align 8, !tbaa !63
  %149 = load ptr, ptr %16, align 8, !tbaa !50
  %150 = getelementptr inbounds i8, ptr %149, i64 1
  %151 = call ptr @xstrdup(ptr noundef %150)
  %152 = load ptr, ptr %13, align 8, !tbaa !52
  %153 = getelementptr inbounds nuw %struct.extra_file_info, ptr %152, i32 0, i32 2
  store ptr %151, ptr %153, align 8, !tbaa !54
  %154 = load ptr, ptr %13, align 8, !tbaa !52
  %155 = getelementptr inbounds nuw %struct.extra_file_info, ptr %154, i32 0, i32 2
  %156 = load ptr, ptr %155, align 8, !tbaa !54
  %157 = call i64 @strlen(ptr noundef %156) #12
  %158 = load ptr, ptr %13, align 8, !tbaa !52
  %159 = getelementptr inbounds nuw %struct.extra_file_info, ptr %158, i32 0, i32 1
  %160 = getelementptr inbounds nuw %struct.stat, ptr %159, i32 0, i32 8
  store i64 %157, ptr %160, align 8, !tbaa !59
  call void @llvm.lifetime.end.p0(i64 8, ptr %16) #11
  call void @llvm.lifetime.end.p0(i64 24, ptr %15) #11
  br label %165

161:                                              ; preds = %74
  %162 = load ptr, ptr %5, align 8, !tbaa !187
  %163 = getelementptr inbounds nuw %struct.option, ptr %162, i32 0, i32 2
  %164 = load ptr, ptr %163, align 8, !tbaa !124
  call void (ptr, i32, ptr, ...) @BUG_fl(ptr noundef @.str.51, i32 noundef 617, ptr noundef @.str.60, ptr noundef %164) #10
  unreachable

165:                                              ; preds = %143
  br label %166

166:                                              ; preds = %165, %71
  %167 = load ptr, ptr %8, align 8, !tbaa !15
  %168 = getelementptr inbounds nuw %struct.archiver_args, ptr %167, i32 0, i32 13
  %169 = load ptr, ptr %11, align 8, !tbaa !50
  %170 = call ptr @string_list_append_nodup(ptr noundef %168, ptr noundef %169)
  store ptr %170, ptr %12, align 8, !tbaa !47
  %171 = load ptr, ptr %13, align 8, !tbaa !52
  %172 = load ptr, ptr %12, align 8, !tbaa !47
  %173 = getelementptr inbounds nuw %struct.string_list_item, ptr %172, i32 0, i32 1
  store ptr %171, ptr %173, align 8, !tbaa !51
  store i32 0, ptr %4, align 4
  store i32 1, ptr %14, align 4
  br label %174

174:                                              ; preds = %166, %35, %29
  call void @llvm.lifetime.end.p0(i64 8, ptr %13) #11
  call void @llvm.lifetime.end.p0(i64 8, ptr %12) #11
  call void @llvm.lifetime.end.p0(i64 8, ptr %11) #11
  call void @llvm.lifetime.end.p0(i64 8, ptr %10) #11
  call void @llvm.lifetime.end.p0(i64 8, ptr %9) #11
  call void @llvm.lifetime.end.p0(i64 8, ptr %8) #11
  %175 = load i32, ptr %4, align 4
  ret i32 %175
}