; Function Attrs: nounwind uwtable
define internal range(i32 -1, 1) i32 @add_file_cb(ptr noundef readonly captures(none) %0, ptr noundef %1, i32 noundef %2) #0 {
  %4 = alloca %struct.strbuf, align 8
  %5 = alloca ptr, align 8
  %6 = getelementptr inbounds nuw i8, ptr %0, i64 16
  %7 = load ptr, ptr %6, align 8, !tbaa !110
  %8 = getelementptr inbounds nuw i8, ptr %0, i64 56
  %9 = load i64, ptr %8, align 8, !tbaa !114
  %10 = inttoptr i64 %9 to ptr
  %11 = load ptr, ptr %10, align 8, !tbaa !104
  %.not = icmp eq i32 %2, 0
  br i1 %.not, label %14, label %12

12:                                               ; preds = %3
  %13 = getelementptr inbounds nuw i8, ptr %7, i64 112
  tail call void @string_list_clear_func(ptr noundef nonnull %13, ptr noundef nonnull @extra_file_info_clear) #19
  br label %91

14:                                               ; preds = %3
  %.not44 = icmp eq ptr %1, null
  br i1 %.not44, label %91, label %15

15:                                               ; preds = %14
  %16 = tail call ptr @xmalloc(i64 noundef 160) #19
  %.not.i = icmp eq ptr %11, null
  br i1 %.not.i, label %xstrdup_or_null.exit, label %17

17:                                               ; preds = %15
  %18 = tail call ptr @xstrdup(ptr noundef nonnull %11) #19
  br label %xstrdup_or_null.exit

xstrdup_or_null.exit:                             ; preds = %15, %17
  %19 = phi ptr [ %18, %17 ], [ null, %15 ]
  store ptr %19, ptr %16, align 8, !tbaa !56
  %20 = getelementptr inbounds nuw i8, ptr %0, i64 8
  %21 = load ptr, ptr %20, align 8, !tbaa !109
  %22 = tail call i32 @strcmp(ptr noundef nonnull dereferenceable(1) %21, ptr noundef nonnull dereferenceable(9) @.str.19) #21
  %.not45 = icmp eq i32 %22, 0
  br i1 %.not45, label %23, label %40

23:                                               ; preds = %xstrdup_or_null.exit
  %24 = getelementptr inbounds nuw i8, ptr %7, i64 16
  %25 = load ptr, ptr %24, align 8, !tbaa !103
  %26 = tail call ptr @prefix_filename(ptr noundef %25, ptr noundef nonnull %1) #19
  %27 = getelementptr inbounds nuw i8, ptr %16, i64 8
  %28 = tail call i32 @stat64(ptr noundef %26, ptr noundef nonnull %27) #19
  %.not46 = icmp eq i32 %28, 0
  br i1 %.not46, label %31, label %29

29:                                               ; preds = %23
  %30 = tail call fastcc ptr @_(ptr noundef nonnull @.str.55)
  tail call void (ptr, ...) @die(ptr noundef %30, ptr noundef %26) #18
  unreachable

31:                                               ; preds = %23
  %32 = getelementptr inbounds nuw i8, ptr %16, i64 32
  %33 = load i32, ptr %32, align 8, !tbaa !58
  %34 = and i32 %33, 61440
  %35 = icmp eq i32 %34, 32768
  br i1 %35, label %38, label %36

36:                                               ; preds = %31
  %37 = tail call fastcc ptr @_(ptr noundef nonnull @.str.56)
  tail call void (ptr, ...) @die(ptr noundef %37, ptr noundef %26) #18
  unreachable

38:                                               ; preds = %31
  %39 = getelementptr inbounds nuw i8, ptr %16, i64 152
  store ptr null, ptr %39, align 8, !tbaa !49
  br label %87

40:                                               ; preds = %xstrdup_or_null.exit
  %41 = tail call i32 @strcmp(ptr noundef nonnull dereferenceable(1) %21, ptr noundef nonnull dereferenceable(17) @.str.22) #21
  %.not47 = icmp eq i32 %41, 0
  br i1 %.not47, label %42, label %86

42:                                               ; preds = %40
  call void @llvm.lifetime.start.p0(i64 24, ptr nonnull %4) #19
  call void @llvm.memcpy.p0.p0.i64(ptr noundef nonnull align 8 dereferenceable(24) %4, ptr noundef nonnull align 8 dereferenceable(24) @__const.reject_entry.sb, i64 24, i1 false)
  call void @llvm.lifetime.start.p0(i64 8, ptr nonnull %5) #19
  store ptr %1, ptr %5, align 8, !tbaa !104
  %43 = load i8, ptr %1, align 1, !tbaa !29
  %.not48 = icmp eq i8 %43, 34
  br i1 %.not48, label %46, label %44

44:                                               ; preds = %42
  %45 = tail call ptr @strchr(ptr noundef nonnull dereferenceable(1) %1, i32 noundef 58) #21
  store ptr %45, ptr %5, align 8, !tbaa !104
  br label %51

46:                                               ; preds = %42
  %47 = call i32 @unquote_c_style(ptr noundef nonnull %4, ptr noundef nonnull %1, ptr noundef nonnull %5) #19
  %48 = icmp slt i32 %47, 0
  br i1 %48, label %49, label %thread-pre-split

49:                                               ; preds = %46
  %50 = call fastcc ptr @_(ptr noundef nonnull @.str.57)
  call void (ptr, ...) @die(ptr noundef %50, ptr noundef nonnull %1) #18
  unreachable

thread-pre-split:                                 ; preds = %46
  %.pr = load ptr, ptr %5, align 8, !tbaa !104
  br label %51

51:                                               ; preds = %thread-pre-split, %44
  %52 = phi ptr [ %.pr, %thread-pre-split ], [ %45, %44 ]
  %.not49 = icmp eq ptr %52, null
  br i1 %.not49, label %55, label %53

53:                                               ; preds = %51
  %54 = load i8, ptr %52, align 1, !tbaa !29
  %.not50 = icmp eq i8 %54, 58
  br i1 %.not50, label %57, label %55

55:                                               ; preds = %53, %51
  %56 = call fastcc ptr @_(ptr noundef nonnull @.str.58)
  call void (ptr, ...) @die(ptr noundef %56, ptr noundef nonnull %1) #18
  unreachable

57:                                               ; preds = %53
  %58 = icmp eq ptr %52, %1
  br i1 %58, label %59, label %61

59:                                               ; preds = %57
  %60 = call fastcc ptr @_(ptr noundef nonnull @.str.59)
  call void (ptr, ...) @die(ptr noundef %60, ptr noundef nonnull %1) #18
  unreachable

61:                                               ; preds = %57
  %62 = getelementptr inbounds nuw i8, ptr %4, i64 8
  %63 = load i64, ptr %62, align 8, !tbaa !53
  %.not51 = icmp eq i64 %63, 0
  br i1 %.not51, label %66, label %64

64:                                               ; preds = %61
  %65 = call ptr @strbuf_detach(ptr noundef nonnull %4, ptr noundef null) #19
  br label %71

66:                                               ; preds = %61
  %67 = ptrtoint ptr %52 to i64
  %68 = ptrtoint ptr %1 to i64
  %69 = sub i64 %67, %68
  %70 = call ptr @xstrndup(ptr noundef nonnull %1, i64 noundef %69) #19
  br label %71

71:                                               ; preds = %66, %64
  %72 = phi ptr [ %65, %64 ], [ %70, %66 ]
  %73 = getelementptr inbounds nuw i8, ptr %7, i64 16
  %74 = load ptr, ptr %73, align 8, !tbaa !103
  %.not52 = icmp eq ptr %74, null
  br i1 %.not52, label %77, label %75

75:                                               ; preds = %71
  %76 = call ptr @prefix_filename(ptr noundef nonnull %74, ptr noundef %72) #19
  call void @free(ptr noundef %72) #19
  br label %77

77:                                               ; preds = %75, %71
  %.1 = phi ptr [ %76, %75 ], [ %72, %71 ]
  %78 = getelementptr inbounds nuw i8, ptr %16, i64 8
  call void @llvm.memset.p0.i64(ptr noundef nonnull align 8 dereferenceable(144) %78, i8 0, i64 144, i1 false)
  %79 = getelementptr inbounds nuw i8, ptr %16, i64 32
  store i32 33188, ptr %79, align 8, !tbaa !58
  %80 = load ptr, ptr %5, align 8, !tbaa !104
  %81 = getelementptr inbounds nuw i8, ptr %80, i64 1
  %82 = call ptr @xstrdup(ptr noundef nonnull %81) #19
  %83 = getelementptr inbounds nuw i8, ptr %16, i64 152
  store ptr %82, ptr %83, align 8, !tbaa !49
  %84 = call i64 @strlen(ptr noundef nonnull dereferenceable(1) %82) #21
  %85 = getelementptr inbounds nuw i8, ptr %16, i64 56
  store i64 %84, ptr %85, align 8, !tbaa !57
  call void @llvm.lifetime.end.p0(i64 8, ptr nonnull %5) #19
  call void @llvm.lifetime.end.p0(i64 24, ptr nonnull %4) #19
  br label %87

86:                                               ; preds = %40
  tail call void (ptr, i32, ptr, ...) @BUG_fl(ptr noundef nonnull @.str.51, i32 noundef 617, ptr noundef nonnull @.str.60, ptr noundef nonnull %21) #18
  unreachable

87:                                               ; preds = %77, %38
  %.040 = phi ptr [ %.1, %77 ], [ %26, %38 ]
  %88 = getelementptr inbounds nuw i8, ptr %7, i64 112
  %89 = call ptr @string_list_append_nodup(ptr noundef nonnull %88, ptr noundef %.040) #19
  %90 = getelementptr inbounds nuw i8, ptr %89, i64 8
  store ptr %16, ptr %90, align 8, !tbaa !48
  br label %91

91:                                               ; preds = %14, %87, %12
  %.0 = phi i32 [ 0, %12 ], [ 0, %87 ], [ -1, %14 ]
  ret i32 %.0
}